target datalayout = "e-m:e-p270:32:32-p271:32:32-p272:64:64-i64:64-i128:128-f80:128-n8:16:32:64-S128"
target triple = "x86_64-pc-linux-gnu"

%struct._phar_metadata_tracker = type { %struct._zval_struct, ptr }
%struct._zval_struct = type { %union._zend_value, %union.anon.3, %union.anon.6 }
%union._zend_value = type { i64 }
%union.anon.3 = type { i32 }
%union.anon.6 = type { i32 }
%struct._phar_entry_info = type { i32, i32, i32, i32, i32, i32, %struct._phar_metadata_tracker, ptr, i32, i64, i64, i64, ptr, ptr, i32, ptr, ptr, ptr, i8, i32, i16, i16 }
%struct._phar_entry_data = type { ptr, ptr, i64, i64, ptr }
%struct._php_stream = type { ptr, ptr, %struct._php_stream_filter_chain, %struct._php_stream_filter_chain, ptr, ptr, %struct._zval_struct, i16, [16 x i8], i32, ptr, ptr, ptr, ptr, i64, ptr, i64, i64, i64, i64, ptr }
%struct._php_stream_filter_chain = type { ptr, ptr, ptr }

; Function Attrs: nounwind uwtable
define internal i64 @phar_stream_read(ptr noundef %0, ptr noundef %1, i64 noundef %2) #0 {
  %4 = alloca i64, align 8
  %5 = alloca ptr, align 8
  %6 = alloca ptr, align 8
  %7 = alloca i64, align 8
  %8 = alloca ptr, align 8
  %9 = alloca i64, align 8
  %10 = alloca ptr, align 8
  %11 = alloca i32, align 4
  store ptr %0, ptr %5, align 8, !tbaa !77
  store ptr %1, ptr %6, align 8, !tbaa !9
  store i64 %2, ptr %7, align 8, !tbaa !20
  call void @llvm.lifetime.start.p0(i64 8, ptr %8) #14
  %12 = load ptr, ptr %5, align 8, !tbaa !77
  %13 = getelementptr inbounds nuw %struct._php_stream, ptr %12, i32 0, i32 1
  %14 = load ptr, ptr %13, align 8, !tbaa !118
  store ptr %14, ptr %8, align 8, !tbaa !75
  call void @llvm.lifetime.start.p0(i64 8, ptr %9) #14
  call void @llvm.lifetime.start.p0(i64 8, ptr %10) #14
  %15 = load ptr, ptr %8, align 8, !tbaa !75
  %16 = getelementptr inbounds nuw %struct._phar_entry_data, ptr %15, i32 0, i32 4
  %17 = load ptr, ptr %16, align 8, !tbaa !84
  %18 = getelementptr inbounds nuw %struct._phar_entry_info, ptr %17, i32 0, i32 17
  %19 = load ptr, ptr %18, align 8, !tbaa !110
  %20 = icmp ne ptr %19, null
  br i1 %20, label %21, label %26

21:                                               ; preds = %3
  %22 = load ptr, ptr %8, align 8, !tbaa !75
  %23 = getelementptr inbounds nuw %struct._phar_entry_data, ptr %22, i32 0, i32 4
  %24 = load ptr, ptr %23, align 8, !tbaa !84
  %25 = call ptr @phar_get_link_source(ptr noundef %24)
  store ptr %25, ptr %10, align 8, !tbaa !43
  br label %30

26:                                               ; preds = %3
  %27 = load ptr, ptr %8, align 8, !tbaa !75
  %28 = getelementptr inbounds nuw %struct._phar_entry_data, ptr %27, i32 0, i32 4
  %29 = load ptr, ptr %28, align 8, !tbaa !84
  store ptr %29, ptr %10, align 8, !tbaa !43
  br label %30

30:                                               ; preds = %26, %21
  %31 = load ptr, ptr %10, align 8, !tbaa !43
  %32 = getelementptr inbounds nuw %struct._phar_entry_info, ptr %31, i32 0, i32 21
  %33 = load i16, ptr %32, align 2
  %34 = lshr i16 %33, 2
  %35 = and i16 %34, 1
  %36 = zext i16 %35 to i32
  %37 = icmp ne i32 %36, 0
  br i1 %37, label %38, label %44

38:                                               ; preds = %30
  %39 = load ptr, ptr %5, align 8, !tbaa !77
  %40 = getelementptr inbounds nuw %struct._php_stream, ptr %39, i32 0, i32 7
  %41 = load i16, ptr %40, align 8
  %42 = and i16 %41, -9
  %43 = or i16 %42, 8
  store i16 %43, ptr %40, align 8
  store i64 -1, ptr %4, align 8
  store i32 1, ptr %11, align 4
  br label %112

44:                                               ; preds = %30
  %45 = load ptr, ptr %8, align 8, !tbaa !75
  %46 = getelementptr inbounds nuw %struct._phar_entry_data, ptr %45, i32 0, i32 1
  %47 = load ptr, ptr %46, align 8, !tbaa !96
  %48 = load ptr, ptr %8, align 8, !tbaa !75
  %49 = getelementptr inbounds nuw %struct._phar_entry_data, ptr %48, i32 0, i32 2
  %50 = load i64, ptr %49, align 8, !tbaa !125
  %51 = load ptr, ptr %8, align 8, !tbaa !75
  %52 = getelementptr inbounds nuw %struct._phar_entry_data, ptr %51, i32 0, i32 3
  %53 = load i64, ptr %52, align 8, !tbaa !129
  %54 = add nsw i64 %50, %53
  %55 = call i32 @_php_stream_seek(ptr noundef %47, i64 noundef %54, i32 noundef 0)
  %56 = load ptr, ptr %8, align 8, !tbaa !75
  %57 = getelementptr inbounds nuw %struct._phar_entry_data, ptr %56, i32 0, i32 1
  %58 = load ptr, ptr %57, align 8, !tbaa !96
  %59 = load ptr, ptr %6, align 8, !tbaa !9
  %60 = load i64, ptr %7, align 8, !tbaa !20
  %61 = load ptr, ptr %10, align 8, !tbaa !43
  %62 = getelementptr inbounds nuw %struct._phar_entry_info, ptr %61, i32 0, i32 0
  %63 = load i32, ptr %62, align 8, !tbaa !47
  %64 = zext i32 %63 to i64
  %65 = load ptr, ptr %8, align 8, !tbaa !75
  %66 = getelementptr inbounds nuw %struct._phar_entry_data, ptr %65, i32 0, i32 2
  %67 = load i64, ptr %66, align 8, !tbaa !125
  %68 = sub nsw i64 %64, %67
  %69 = icmp ult i64 %60, %68
  br i1 %69, label %70, label %72

70:                                               ; preds = %44
  %71 = load i64, ptr %7, align 8, !tbaa !20
  br label %81

72:                                               ; preds = %44
  %73 = load ptr, ptr %10, align 8, !tbaa !43
  %74 = getelementptr inbounds nuw %struct._phar_entry_info, ptr %73, i32 0, i32 0
  %75 = load i32, ptr %74, align 8, !tbaa !47
  %76 = zext i32 %75 to i64
  %77 = load ptr, ptr %8, align 8, !tbaa !75
  %78 = getelementptr inbounds nuw %struct._phar_entry_data, ptr %77, i32 0, i32 2
  %79 = load i64, ptr %78, align 8, !tbaa !125
  %80 = sub nsw i64 %76, %79
  br label %81

81:                                               ; preds = %72, %70
  %82 = phi i64 [ %71, %70 ], [ %80, %72 ]
  %83 = call i64 @_php_stream_read(ptr noundef %58, ptr noundef %59, i64 noundef %82)
  store i64 %83, ptr %9, align 8, !tbaa !20
  %84 = load ptr, ptr %8, align 8, !tbaa !75
  %85 = getelementptr inbounds nuw %struct._phar_entry_data, ptr %84, i32 0, i32 1
  %86 = load ptr, ptr %85, align 8, !tbaa !96
  %87 = call i64 @_php_stream_tell(ptr noundef %86)
  %88 = load ptr, ptr %8, align 8, !tbaa !75
  %89 = getelementptr inbounds nuw %struct._phar_entry_data, ptr %88, i32 0, i32 3
  %90 = load i64, ptr %89, align 8, !tbaa !129
  %91 = sub nsw i64 %87, %90
  %92 = load ptr, ptr %8, align 8, !tbaa !75
  %93 = getelementptr inbounds nuw %struct._phar_entry_data, ptr %92, i32 0, i32 2
  store i64 %91, ptr %93, align 8, !tbaa !125
  %94 = load ptr, ptr %8, align 8, !tbaa !75
  %95 = getelementptr inbounds nuw %struct._phar_entry_data, ptr %94, i32 0, i32 2
  %96 = load i64, ptr %95, align 8, !tbaa !125
  %97 = load ptr, ptr %10, align 8, !tbaa !43
  %98 = getelementptr inbounds nuw %struct._phar_entry_info, ptr %97, i32 0, i32 0
  %99 = load i32, ptr %98, align 8, !tbaa !47
  %100 = zext i32 %99 to i64
  %101 = icmp eq i64 %96, %100
  %102 = zext i1 %101 to i32
  %103 = trunc i32 %102 to i16
  %104 = load ptr, ptr %5, align 8, !tbaa !77
  %105 = getelementptr inbounds nuw %struct._php_stream, ptr %104, i32 0, i32 7
  %106 = load i16, ptr %105, align 8
  %107 = and i16 %103, 1
  %108 = shl i16 %107, 3
  %109 = and i16 %106, -9
  %110 = or i16 %109, %108
  store i16 %110, ptr %105, align 8
  %111 = load i64, ptr %9, align 8, !tbaa !20
  store i64 %111, ptr %4, align 8
  store i32 1, ptr %11, align 4
  br label %112

112:                                              ; preds = %81, %38
  call void @llvm.lifetime.end.p0(i64 8, ptr %10) #14
  call void @llvm.lifetime.end.p0(i64 8, ptr %9) #14
  call void @llvm.lifetime.end.p0(i64 8, ptr %8) #14
  %113 = load i64, ptr %4, align 8
  ret i64 %113
}