; Function Attrs: nounwind uwtable
define internal i64 @phar_stream_read(ptr noundef captures(none) %0, ptr noundef %1, i64 noundef %2) #0 {
  %4 = getelementptr inbounds nuw i8, ptr %0, i64 8
  %5 = load ptr, ptr %4, align 8, !tbaa !93
  %6 = getelementptr inbounds nuw i8, ptr %5, i64 32
  %7 = load ptr, ptr %6, align 8, !tbaa !63
  %8 = getelementptr inbounds nuw i8, ptr %7, i64 128
  %9 = load ptr, ptr %8, align 8, !tbaa !91
  %.not = icmp eq ptr %9, null
  br i1 %.not, label %12, label %10

10:                                               ; preds = %3
  %11 = tail call ptr @phar_get_link_source(ptr noundef nonnull %7) #15
  br label %12

12:                                               ; preds = %3, %10
  %.0 = phi ptr [ %11, %10 ], [ %7, %3 ]
  %13 = getelementptr inbounds nuw i8, ptr %.0, i64 146
  %14 = load i16, ptr %13, align 2
  %15 = and i16 %14, 4
  %.not27 = icmp eq i16 %15, 0
  br i1 %.not27, label %20, label %16

16:                                               ; preds = %12
  %17 = getelementptr inbounds nuw i8, ptr %0, i64 96
  %18 = load i16, ptr %17, align 8
  %19 = or i16 %18, 8
  store i16 %19, ptr %17, align 8
  br label %47

20:                                               ; preds = %12
  %21 = getelementptr inbounds nuw i8, ptr %5, i64 8
  %22 = load ptr, ptr %21, align 8, !tbaa !78
  %23 = getelementptr inbounds nuw i8, ptr %5, i64 16
  %24 = load i64, ptr %23, align 8, !tbaa !101
  %25 = getelementptr inbounds nuw i8, ptr %5, i64 24
  %26 = load i64, ptr %25, align 8, !tbaa !105
  %27 = add nsw i64 %26, %24
  %28 = tail call i32 @_php_stream_seek(ptr noundef %22, i64 noundef %27, i32 noundef 0) #15
  %29 = load ptr, ptr %21, align 8, !tbaa !78
  %30 = load i32, ptr %.0, align 8, !tbaa !34
  %31 = zext i32 %30 to i64
  %32 = load i64, ptr %23, align 8, !tbaa !101
  %33 = sub nsw i64 %31, %32
  %. = tail call i64 @llvm.umin.i64(i64 %2, i64 %33)
  %34 = tail call i64 @_php_stream_read(ptr noundef %29, ptr noundef %1, i64 noundef %.) #15
  %35 = load ptr, ptr %21, align 8, !tbaa !78
  %36 = tail call i64 @_php_stream_tell(ptr noundef %35) #15
  %37 = load i64, ptr %25, align 8, !tbaa !105
  %38 = sub nsw i64 %36, %37
  store i64 %38, ptr %23, align 8, !tbaa !101
  %39 = load i32, ptr %.0, align 8, !tbaa !34
  %40 = zext i32 %39 to i64
  %41 = icmp eq i64 %38, %40
  %42 = getelementptr inbounds nuw i8, ptr %0, i64 96
  %43 = load i16, ptr %42, align 8
  %44 = select i1 %41, i16 8, i16 0
  %45 = and i16 %43, -9
  %46 = or disjoint i16 %44, %45
  store i16 %46, ptr %42, align 8
  br label %47

47:                                               ; preds = %20, %16
  %.024 = phi i64 [ -1, %16 ], [ %34, %20 ]
  ret i64 %.024
}